target datalayout = "e-m:e-p270:32:32-p271:32:32-p272:64:64-i64:64-i128:128-f80:128-n8:16:32:64-S128"
target triple = "x86_64-pc-linux-gnu"

%struct.AVRational = type { i32, i32 }
%struct.AVFormatContext = type { ptr, ptr, ptr, ptr, ptr, i32, i32, ptr, i32, ptr, i32, ptr, ptr, i64, i64, i64, i32, i32, i32, i64, i64, ptr, i32, i32, ptr, i32, i32, i32, i32, ptr, i64, i32, i32, %struct.AVIOInterruptCB, i32, i32, i32, i32, i64, i32, i32, i32, i32, i32, i32, i32, i32, i32, i32, i32, i32, i64, i32, i32, i32, i32, i32, ptr, ptr, ptr, ptr, i32, ptr, ptr, ptr, ptr, i32, ptr, ptr, i64, ptr, ptr, ptr, i64 }
%struct.AVIOInterruptCB = type { ptr, ptr }
%struct.GXFContext = type { ptr, i32, i16, i16, i64, i32, i32, i32, i32, i16, i16, %struct.AVRational, i32, %struct.GXFStreamContext, ptr, i32, ptr, i32, i32, %struct.GXFTimecode }
%struct.GXFStreamContext = type { i64, i32, i32, i32, i16, i16, i32, i32, i32, i32, i32, i32, i32, i32, i32, i32 }
%struct.GXFTimecode = type { i32, i32, i32, i32, i32, i32 }

; Function Attrs: nounwind uwtable
define internal void @gxf_write_packet_header(ptr noundef %0, i32 noundef %1) #0 {
  %3 = alloca ptr, align 8
  %4 = alloca i32, align 4
  store ptr %0, ptr %3, align 8, !tbaa !26
  store i32 %1, ptr %4, align 4, !tbaa !32
  %5 = load ptr, ptr %3, align 8, !tbaa !26
  call void @avio_wb32(ptr noundef %5, i32 noundef 0)
  %6 = load ptr, ptr %3, align 8, !tbaa !26
  call void @avio_w8(ptr noundef %6, i32 noundef 1)
  %7 = load ptr, ptr %3, align 8, !tbaa !26
  %8 = load i32, ptr %4, align 4, !tbaa !32
  call void @avio_w8(ptr noundef %7, i32 noundef %8)
  %9 = load ptr, ptr %3, align 8, !tbaa !26
  call void @avio_wb32(ptr noundef %9, i32 noundef 0)
  %10 = load ptr, ptr %3, align 8, !tbaa !26
  call void @avio_wb32(ptr noundef %10, i32 noundef 0)
  %11 = load ptr, ptr %3, align 8, !tbaa !26
  call void @avio_w8(ptr noundef %11, i32 noundef 225)
  %12 = load ptr, ptr %3, align 8, !tbaa !26
  call void @avio_w8(ptr noundef %12, i32 noundef 226)
  ret void
}

; Function Attrs: alwaysinline nounwind uwtable
define internal i64 @avio_tell(ptr noundef %0) #6 {
  %2 = alloca ptr, align 8
  store ptr %0, ptr %2, align 8, !tbaa !26
  %3 = load ptr, ptr %2, align 8, !tbaa !26
  %4 = call i64 @avio_seek(ptr noundef %3, i64 noundef 0, i32 noundef 1)
  ret i64 %4
}

; Function Attrs: nounwind uwtable
define internal i32 @gxf_write_eos_packet(ptr noundef %0) #0 {
  %2 = alloca ptr, align 8
  %3 = alloca i64, align 8
  store ptr %0, ptr %2, align 8, !tbaa !26
  call void @llvm.lifetime.start.p0(i64 8, ptr %3) #10
  %4 = load ptr, ptr %2, align 8, !tbaa !26
  %5 = call i64 @avio_tell(ptr noundef %4)
  store i64 %5, ptr %3, align 8, !tbaa !94
  %6 = load ptr, ptr %2, align 8, !tbaa !26
  call void @gxf_write_packet_header(ptr noundef %6, i32 noundef 251)
  %7 = load ptr, ptr %2, align 8, !tbaa !26
  %8 = load i64, ptr %3, align 8, !tbaa !94
  %9 = call i64 @update_packet_size(ptr noundef %7, i64 noundef %8)
  %10 = trunc i64 %9 to i32
  call void @llvm.lifetime.end.p0(i64 8, ptr %3) #10
  ret i32 %10
}

; Function Attrs: nounwind uwtable
define internal i32 @gxf_write_trailer(ptr noundef %0) #0 {
  %2 = alloca i32, align 4
  %3 = alloca ptr, align 8
  %4 = alloca ptr, align 8
  %5 = alloca ptr, align 8
  %6 = alloca i64, align 8
  %7 = alloca i32, align 4
  %8 = alloca i32, align 4
  %9 = alloca i32, align 4
  store ptr %0, ptr %3, align 8, !tbaa !4
  call void @llvm.lifetime.start.p0(i64 8, ptr %4) #10
  %10 = load ptr, ptr %3, align 8, !tbaa !4
  %11 = getelementptr inbounds nuw %struct.AVFormatContext, ptr %10, i32 0, i32 3
  %12 = load ptr, ptr %11, align 8, !tbaa !27
  store ptr %12, ptr %4, align 8, !tbaa !28
  call void @llvm.lifetime.start.p0(i64 8, ptr %5) #10
  %13 = load ptr, ptr %3, align 8, !tbaa !4
  %14 = getelementptr inbounds nuw %struct.AVFormatContext, ptr %13, i32 0, i32 4
  %15 = load ptr, ptr %14, align 8, !tbaa !9
  store ptr %15, ptr %5, align 8, !tbaa !26
  call void @llvm.lifetime.start.p0(i64 8, ptr %6) #10
  call void @llvm.lifetime.start.p0(i64 4, ptr %7) #10
  call void @llvm.lifetime.start.p0(i64 4, ptr %8) #10
  %16 = load ptr, ptr %5, align 8, !tbaa !26
  %17 = call i32 @gxf_write_eos_packet(ptr noundef %16)
  %18 = load ptr, ptr %5, align 8, !tbaa !26
  %19 = call i64 @avio_tell(ptr noundef %18)
  store i64 %19, ptr %6, align 8, !tbaa !94
  %20 = load ptr, ptr %5, align 8, !tbaa !26
  %21 = call i64 @avio_seek(ptr noundef %20, i64 noundef 0, i32 noundef 0)
  %22 = load ptr, ptr %3, align 8, !tbaa !4
  %23 = call i32 @gxf_write_map_packet(ptr noundef %22, i32 noundef 1)
  store i32 %23, ptr %8, align 4, !tbaa !32
  %24 = icmp slt i32 %23, 0
  br i1 %24, label %25, label %27

25:                                               ; preds = %1
  %26 = load i32, ptr %8, align 4, !tbaa !32
  store i32 %26, ptr %2, align 4
  store i32 1, ptr %9, align 4
  br label %61

27:                                               ; preds = %1
  %28 = load ptr, ptr %3, align 8, !tbaa !4
  %29 = call i32 @gxf_write_flt_packet(ptr noundef %28)
  %30 = load ptr, ptr %3, align 8, !tbaa !4
  %31 = call i32 @gxf_write_umf_packet(ptr noundef %30)
  store i32 1, ptr %7, align 4, !tbaa !32
  br label %32

32:                                               ; preds = %54, %27
  %33 = load i32, ptr %7, align 4, !tbaa !32
  %34 = load ptr, ptr %4, align 8, !tbaa !28
  %35 = getelementptr inbounds nuw %struct.GXFContext, ptr %34, i32 0, i32 17
  %36 = load i32, ptr %35, align 8, !tbaa !100
  %37 = icmp ult i32 %33, %36
  br i1 %37, label %38, label %57

38:                                               ; preds = %32
  %39 = load ptr, ptr %5, align 8, !tbaa !26
  %40 = load ptr, ptr %4, align 8, !tbaa !28
  %41 = getelementptr inbounds nuw %struct.GXFContext, ptr %40, i32 0, i32 16
  %42 = load ptr, ptr %41, align 8, !tbaa !101
  %43 = load i32, ptr %7, align 4, !tbaa !32
  %44 = sext i32 %43 to i64
  %45 = getelementptr inbounds i64, ptr %42, i64 %44
  %46 = load i64, ptr %45, align 8, !tbaa !94
  %47 = call i64 @avio_seek(ptr noundef %39, i64 noundef %46, i32 noundef 0)
  %48 = load ptr, ptr %3, align 8, !tbaa !4
  %49 = call i32 @gxf_write_map_packet(ptr noundef %48, i32 noundef 1)
  store i32 %49, ptr %8, align 4, !tbaa !32
  %50 = icmp slt i32 %49, 0
  br i1 %50, label %51, label %53

51:                                               ; preds = %38
  %52 = load i32, ptr %8, align 4, !tbaa !32
  store i32 %52, ptr %2, align 4
  store i32 1, ptr %9, align 4
  br label %61

53:                                               ; preds = %38
  br label %54

54:                                               ; preds = %53
  %55 = load i32, ptr %7, align 4, !tbaa !32
  %56 = add nsw i32 %55, 1
  store i32 %56, ptr %7, align 4, !tbaa !32
  br label %32, !llvm.loop !102

57:                                               ; preds = %32
  %58 = load ptr, ptr %5, align 8, !tbaa !26
  %59 = load i64, ptr %6, align 8, !tbaa !94
  %60 = call i64 @avio_seek(ptr noundef %58, i64 noundef %59, i32 noundef 0)
  store i32 0, ptr %2, align 4
  store i32 1, ptr %9, align 4
  br label %61

61:                                               ; preds = %57, %51, %25
  call void @llvm.lifetime.end.p0(i64 4, ptr %8) #10
  call void @llvm.lifetime.end.p0(i64 4, ptr %7) #10
  call void @llvm.lifetime.end.p0(i64 8, ptr %6) #10
  call void @llvm.lifetime.end.p0(i64 8, ptr %5) #10
  call void @llvm.lifetime.end.p0(i64 8, ptr %4) #10
  %62 = load i32, ptr %2, align 4
  ret i32 %62
}