; Function Attrs: nounwind uwtable
define internal range(i32 -2147483648, 1) i32 @gxf_write_trailer(ptr noundef %0) #0 {
  %2 = getelementptr inbounds nuw i8, ptr %0, i64 24
  %3 = load ptr, ptr %2, align 8, !tbaa !24
  %4 = getelementptr inbounds nuw i8, ptr %0, i64 32
  %5 = load ptr, ptr %4, align 8, !tbaa !4
  %6 = tail call i64 @avio_seek(ptr noundef %5, i64 noundef 0, i32 noundef 1) #10
  tail call void @avio_wb32(ptr noundef %5, i32 noundef 0) #10
  tail call void @avio_w8(ptr noundef %5, i32 noundef 1) #10
  tail call void @avio_w8(ptr noundef %5, i32 noundef 251) #10
  tail call void @avio_wb32(ptr noundef %5, i32 noundef 0) #10
  tail call void @avio_wb32(ptr noundef %5, i32 noundef 0) #10
  tail call void @avio_w8(ptr noundef %5, i32 noundef 225) #10
  tail call void @avio_w8(ptr noundef %5, i32 noundef 226) #10
  %7 = tail call fastcc i64 @update_packet_size(ptr noundef %5, i64 noundef %6)
  %8 = tail call i64 @avio_seek(ptr noundef %5, i64 noundef 0, i32 noundef 1) #10
  %9 = tail call i64 @avio_seek(ptr noundef %5, i64 noundef 0, i32 noundef 0) #10
  %10 = tail call fastcc i32 @gxf_write_map_packet(ptr noundef %0, i32 noundef 1)
  %11 = icmp slt i32 %10, 0
  br i1 %11, label %.loopexit, label %12

12:                                               ; preds = %1
  %.val = load ptr, ptr %2, align 8, !tbaa !24
  %.val22 = load ptr, ptr %4, align 8, !tbaa !4
  tail call fastcc void @gxf_write_flt_packet(ptr %.val, ptr %.val22)
  tail call fastcc void @gxf_write_umf_packet(ptr noundef nonnull %0)
  %13 = getelementptr inbounds nuw i8, ptr %3, i64 144
  %14 = load i32, ptr %13, align 8, !tbaa !97
  %15 = icmp ugt i32 %14, 1
  br i1 %15, label %.lr.ph, label %._crit_edge

.lr.ph:                                           ; preds = %12
  %16 = getelementptr inbounds nuw i8, ptr %3, i64 136
  br label %21

17:                                               ; preds = %21
  %indvars.iv.next = add nuw nsw i64 %indvars.iv, 1
  %18 = load i32, ptr %13, align 8, !tbaa !97
  %19 = zext i32 %18 to i64
  %20 = icmp samesign ult i64 %indvars.iv.next, %19
  br i1 %20, label %21, label %._crit_edge, !llvm.loop !98

21:                                               ; preds = %.lr.ph, %17
  %indvars.iv = phi i64 [ 1, %.lr.ph ], [ %indvars.iv.next, %17 ]
  %22 = load ptr, ptr %16, align 8, !tbaa !99
  %23 = getelementptr inbounds nuw i64, ptr %22, i64 %indvars.iv
  %24 = load i64, ptr %23, align 8, !tbaa !100
  %25 = tail call i64 @avio_seek(ptr noundef %5, i64 noundef %24, i32 noundef 0) #10
  %26 = tail call fastcc i32 @gxf_write_map_packet(ptr noundef nonnull %0, i32 noundef 1)
  %27 = icmp slt i32 %26, 0
  br i1 %27, label %.loopexit, label %17

._crit_edge:                                      ; preds = %17, %12
  %28 = tail call i64 @avio_seek(ptr noundef %5, i64 noundef %8, i32 noundef 0) #10
  br label %.loopexit

.loopexit:                                        ; preds = %21, %1, %._crit_edge
  %.019 = phi i32 [ 0, %._crit_edge ], [ %10, %1 ], [ %26, %21 ]
  ret i32 %.019
}